target datalayout = "e-m:e-p270:32:32-p271:32:32-p272:64:64-i64:64-i128:128-f80:128-n8:16:32:64-S128"
target triple = "x86_64-pc-linux-gnu"

%struct.ml_dsa_sig_gen_test_data_st = type { ptr, ptr, i64, ptr, i64, ptr, i64, ptr, i64 }
%struct.ossl_param_st = type { ptr, i32, ptr, i64, i64 }

@lib_ctx = internal global ptr null, align 8
@.str.29 = private unnamed_addr constant [30 x i8] c"../openssl/test/ml_dsa_test.c\00", align 1
@.str.44 = private unnamed_addr constant [2 x i8] c"1\00", align 1
@.str.47 = private unnamed_addr constant [14 x i8] c"deterministic\00", align 1
@.str.48 = private unnamed_addr constant [17 x i8] c"message-encoding\00", align 1
@.str.49 = private unnamed_addr constant [13 x i8] c"test-entropy\00", align 1
@.str.50 = private unnamed_addr constant [74 x i8] c"ml_dsa_create_keypair(&pkey, td->alg, td->priv, td->priv_len, NULL, 0, 1)\00", align 1
@.str.51 = private unnamed_addr constant [55 x i8] c"sctx = EVP_PKEY_CTX_new_from_pkey(lib_ctx, pkey, NULL)\00", align 1
@.str.52 = private unnamed_addr constant [54 x i8] c"sig_alg = EVP_SIGNATURE_fetch(lib_ctx, td->alg, NULL)\00", align 1
@.str.53 = private unnamed_addr constant [50 x i8] c"EVP_PKEY_sign_message_init(sctx, sig_alg, params)\00", align 1
@.str.54 = private unnamed_addr constant [59 x i8] c"EVP_PKEY_sign(sctx, NULL, &psig_len, td->msg, td->msg_len)\00", align 1
@.str.55 = private unnamed_addr constant [69 x i8] c"EVP_PKEY_get_size_t_param(pkey, OSSL_PKEY_PARAM_MAX_SIZE, &sig_len2)\00", align 1
@.str.56 = private unnamed_addr constant [9 x i8] c"max-size\00", align 1
@.str.57 = private unnamed_addr constant [9 x i8] c"sig_len2\00", align 1
@.str.58 = private unnamed_addr constant [9 x i8] c"psig_len\00", align 1
@.str.59 = private unnamed_addr constant [32 x i8] c"psig = OPENSSL_zalloc(psig_len)\00", align 1
@.str.60 = private unnamed_addr constant [59 x i8] c"EVP_PKEY_sign(sctx, psig, &psig_len, td->msg, td->msg_len)\00", align 1
@.str.61 = private unnamed_addr constant [75 x i8] c"EVP_Q_digest(lib_ctx, \22SHA256\22, NULL, psig, psig_len, digest, &digest_len)\00", align 1
@.str.62 = private unnamed_addr constant [7 x i8] c"SHA256\00", align 1
@.str.63 = private unnamed_addr constant [7 x i8] c"digest\00", align 1
@.str.64 = private unnamed_addr constant [15 x i8] c"td->sig_digest\00", align 1

; Function Attrs: nounwind uwtable
define internal i32 @ml_dsa_siggen_test(i32 noundef %0) #0 {
  %2 = alloca i32, align 4
  %3 = alloca i32, align 4
  %4 = alloca ptr, align 8
  %5 = alloca ptr, align 8
  %6 = alloca ptr, align 8
  %7 = alloca ptr, align 8
  %8 = alloca [4 x %struct.ossl_param_st], align 16
  %9 = alloca ptr, align 8
  %10 = alloca ptr, align 8
  %11 = alloca i64, align 8
  %12 = alloca i64, align 8
  %13 = alloca [32 x i8], align 16
  %14 = alloca i64, align 8
  %15 = alloca i32, align 4
  %16 = alloca i32, align 4
  %17 = alloca %struct.ossl_param_st, align 8
  %18 = alloca %struct.ossl_param_st, align 8
  %19 = alloca %struct.ossl_param_st, align 8
  %20 = alloca %struct.ossl_param_st, align 8
  store i32 %0, ptr %2, align 4, !tbaa !9
  call void @llvm.lifetime.start.p0(i64 4, ptr %3) #4
  store i32 0, ptr %3, align 4, !tbaa !9
  call void @llvm.lifetime.start.p0(i64 8, ptr %4) #4
  %21 = load i32, ptr %2, align 4, !tbaa !9
  %22 = sext i32 %21 to i64
  %23 = getelementptr inbounds [2 x %struct.ml_dsa_sig_gen_test_data_st], ptr @ml_dsa_siggen_testdata, i64 0, i64 %22
  store ptr %23, ptr %4, align 8, !tbaa !27
  call void @llvm.lifetime.start.p0(i64 8, ptr %5) #4
  store ptr null, ptr %5, align 8, !tbaa !29
  call void @llvm.lifetime.start.p0(i64 8, ptr %6) #4
  store ptr null, ptr %6, align 8, !tbaa !15
  call void @llvm.lifetime.start.p0(i64 8, ptr %7) #4
  store ptr null, ptr %7, align 8, !tbaa !31
  call void @llvm.lifetime.start.p0(i64 160, ptr %8) #4
  call void @llvm.lifetime.start.p0(i64 8, ptr %9) #4
  %24 = getelementptr inbounds [4 x %struct.ossl_param_st], ptr %8, i64 0, i64 0
  store ptr %24, ptr %9, align 8, !tbaa !33
  call void @llvm.lifetime.start.p0(i64 8, ptr %10) #4
  store ptr null, ptr %10, align 8, !tbaa !4
  call void @llvm.lifetime.start.p0(i64 8, ptr %11) #4
  store i64 0, ptr %11, align 8, !tbaa !22
  call void @llvm.lifetime.start.p0(i64 8, ptr %12) #4
  store i64 0, ptr %12, align 8, !tbaa !22
  call void @llvm.lifetime.start.p0(i64 32, ptr %13) #4
  call void @llvm.lifetime.start.p0(i64 8, ptr %14) #4
  store i64 32, ptr %14, align 8, !tbaa !22
  call void @llvm.lifetime.start.p0(i64 4, ptr %15) #4
  store i32 0, ptr %15, align 4, !tbaa !9
  call void @llvm.lifetime.start.p0(i64 4, ptr %16) #4
  store i32 1, ptr %16, align 4, !tbaa !9
  %25 = load ptr, ptr %9, align 8, !tbaa !33
  %26 = getelementptr inbounds nuw %struct.ossl_param_st, ptr %25, i32 1
  store ptr %26, ptr %9, align 8, !tbaa !33
  call void @llvm.lifetime.start.p0(i64 40, ptr %17) #4
  call void @OSSL_PARAM_construct_int(ptr dead_on_unwind writable sret(%struct.ossl_param_st) align 8 %17, ptr noundef @.str.47, ptr noundef %16)
  call void @llvm.memcpy.p0.p0.i64(ptr align 8 %25, ptr align 8 %17, i64 40, i1 false), !tbaa.struct !35
  call void @llvm.lifetime.end.p0(i64 40, ptr %17) #4
  %27 = load ptr, ptr %9, align 8, !tbaa !33
  %28 = getelementptr inbounds nuw %struct.ossl_param_st, ptr %27, i32 1
  store ptr %28, ptr %9, align 8, !tbaa !33
  call void @llvm.lifetime.start.p0(i64 40, ptr %18) #4
  call void @OSSL_PARAM_construct_int(ptr dead_on_unwind writable sret(%struct.ossl_param_st) align 8 %18, ptr noundef @.str.48, ptr noundef %15)
  call void @llvm.memcpy.p0.p0.i64(ptr align 8 %27, ptr align 8 %18, i64 40, i1 false), !tbaa.struct !35
  call void @llvm.lifetime.end.p0(i64 40, ptr %18) #4
  %29 = load ptr, ptr %4, align 8, !tbaa !27
  %30 = getelementptr inbounds nuw %struct.ml_dsa_sig_gen_test_data_st, ptr %29, i32 0, i32 7
  %31 = load ptr, ptr %30, align 8, !tbaa !37
  %32 = icmp ne ptr %31, null
  br i1 %32, label %33, label %42

33:                                               ; preds = %1
  %34 = load ptr, ptr %9, align 8, !tbaa !33
  %35 = getelementptr inbounds nuw %struct.ossl_param_st, ptr %34, i32 1
  store ptr %35, ptr %9, align 8, !tbaa !33
  call void @llvm.lifetime.start.p0(i64 40, ptr %19) #4
  %36 = load ptr, ptr %4, align 8, !tbaa !27
  %37 = getelementptr inbounds nuw %struct.ml_dsa_sig_gen_test_data_st, ptr %36, i32 0, i32 7
  %38 = load ptr, ptr %37, align 8, !tbaa !37
  %39 = load ptr, ptr %4, align 8, !tbaa !27
  %40 = getelementptr inbounds nuw %struct.ml_dsa_sig_gen_test_data_st, ptr %39, i32 0, i32 8
  %41 = load i64, ptr %40, align 8, !tbaa !39
  call void @OSSL_PARAM_construct_octet_string(ptr dead_on_unwind writable sret(%struct.ossl_param_st) align 8 %19, ptr noundef @.str.49, ptr noundef %38, i64 noundef %41)
  call void @llvm.memcpy.p0.p0.i64(ptr align 8 %34, ptr align 8 %19, i64 40, i1 false), !tbaa.struct !35
  call void @llvm.lifetime.end.p0(i64 40, ptr %19) #4
  br label %42

42:                                               ; preds = %33, %1
  %43 = load ptr, ptr %9, align 8, !tbaa !33
  call void @llvm.lifetime.start.p0(i64 40, ptr %20) #4
  call void @OSSL_PARAM_construct_end(ptr dead_on_unwind writable sret(%struct.ossl_param_st) align 8 %20)
  call void @llvm.memcpy.p0.p0.i64(ptr align 8 %43, ptr align 8 %20, i64 40, i1 false), !tbaa.struct !35
  call void @llvm.lifetime.end.p0(i64 40, ptr %20) #4
  %44 = load ptr, ptr %4, align 8, !tbaa !27
  %45 = getelementptr inbounds nuw %struct.ml_dsa_sig_gen_test_data_st, ptr %44, i32 0, i32 0
  %46 = load ptr, ptr %45, align 8, !tbaa !40
  %47 = load ptr, ptr %4, align 8, !tbaa !27
  %48 = getelementptr inbounds nuw %struct.ml_dsa_sig_gen_test_data_st, ptr %47, i32 0, i32 1
  %49 = load ptr, ptr %48, align 8, !tbaa !41
  %50 = load ptr, ptr %4, align 8, !tbaa !27
  %51 = getelementptr inbounds nuw %struct.ml_dsa_sig_gen_test_data_st, ptr %50, i32 0, i32 2
  %52 = load i64, ptr %51, align 8, !tbaa !42
  %53 = call i32 @ml_dsa_create_keypair(ptr noundef %6, ptr noundef %46, ptr noundef %49, i64 noundef %52, ptr noundef null, i64 noundef 0, i32 noundef 1)
  %54 = icmp ne i32 %53, 0
  %55 = zext i1 %54 to i32
  %56 = call i32 @test_true(ptr noundef @.str.29, i32 noundef 137, ptr noundef @.str.50, i32 noundef %55)
  %57 = icmp ne i32 %56, 0
  br i1 %57, label %58, label %140

58:                                               ; preds = %42
  %59 = load ptr, ptr @lib_ctx, align 8, !tbaa !43
  %60 = load ptr, ptr %6, align 8, !tbaa !15
  %61 = call ptr @EVP_PKEY_CTX_new_from_pkey(ptr noundef %59, ptr noundef %60, ptr noundef null)
  store ptr %61, ptr %5, align 8, !tbaa !29
  %62 = call i32 @test_ptr(ptr noundef @.str.29, i32 noundef 138, ptr noundef @.str.51, ptr noundef %61)
  %63 = icmp ne i32 %62, 0
  br i1 %63, label %64, label %140

64:                                               ; preds = %58
  %65 = load ptr, ptr @lib_ctx, align 8, !tbaa !43
  %66 = load ptr, ptr %4, align 8, !tbaa !27
  %67 = getelementptr inbounds nuw %struct.ml_dsa_sig_gen_test_data_st, ptr %66, i32 0, i32 0
  %68 = load ptr, ptr %67, align 8, !tbaa !40
  %69 = call ptr @EVP_SIGNATURE_fetch(ptr noundef %65, ptr noundef %68, ptr noundef null)
  store ptr %69, ptr %7, align 8, !tbaa !31
  %70 = call i32 @test_ptr(ptr noundef @.str.29, i32 noundef 139, ptr noundef @.str.52, ptr noundef %69)
  %71 = icmp ne i32 %70, 0
  br i1 %71, label %72, label %140

72:                                               ; preds = %64
  %73 = load ptr, ptr %5, align 8, !tbaa !29
  %74 = load ptr, ptr %7, align 8, !tbaa !31
  %75 = getelementptr inbounds [4 x %struct.ossl_param_st], ptr %8, i64 0, i64 0
  %76 = call i32 @EVP_PKEY_sign_message_init(ptr noundef %73, ptr noundef %74, ptr noundef %75)
  %77 = call i32 @test_int_eq(ptr noundef @.str.29, i32 noundef 140, ptr noundef @.str.53, ptr noundef @.str.44, i32 noundef %76, i32 noundef 1)
  %78 = icmp ne i32 %77, 0
  br i1 %78, label %79, label %140

79:                                               ; preds = %72
  %80 = load ptr, ptr %5, align 8, !tbaa !29
  %81 = load ptr, ptr %4, align 8, !tbaa !27
  %82 = getelementptr inbounds nuw %struct.ml_dsa_sig_gen_test_data_st, ptr %81, i32 0, i32 3
  %83 = load ptr, ptr %82, align 8, !tbaa !45
  %84 = load ptr, ptr %4, align 8, !tbaa !27
  %85 = getelementptr inbounds nuw %struct.ml_dsa_sig_gen_test_data_st, ptr %84, i32 0, i32 4
  %86 = load i64, ptr %85, align 8, !tbaa !46
  %87 = call i32 @EVP_PKEY_sign(ptr noundef %80, ptr noundef null, ptr noundef %11, ptr noundef %83, i64 noundef %86)
  %88 = call i32 @test_int_eq(ptr noundef @.str.29, i32 noundef 142, ptr noundef @.str.54, ptr noundef @.str.44, i32 noundef %87, i32 noundef 1)
  %89 = icmp ne i32 %88, 0
  br i1 %89, label %90, label %140

90:                                               ; preds = %79
  %91 = load ptr, ptr %6, align 8, !tbaa !15
  %92 = call i32 @EVP_PKEY_get_size_t_param(ptr noundef %91, ptr noundef @.str.56, ptr noundef %12)
  %93 = icmp ne i32 %92, 0
  %94 = zext i1 %93 to i32
  %95 = call i32 @test_true(ptr noundef @.str.29, i32 noundef 144, ptr noundef @.str.55, i32 noundef %94)
  %96 = icmp ne i32 %95, 0
  br i1 %96, label %97, label %140

97:                                               ; preds = %90
  %98 = load i64, ptr %12, align 8, !tbaa !22
  %99 = trunc i64 %98 to i32
  %100 = load i64, ptr %11, align 8, !tbaa !22
  %101 = trunc i64 %100 to i32
  %102 = call i32 @test_int_eq(ptr noundef @.str.29, i32 noundef 145, ptr noundef @.str.57, ptr noundef @.str.58, i32 noundef %99, i32 noundef %101)
  %103 = icmp ne i32 %102, 0
  br i1 %103, label %104, label %140

104:                                              ; preds = %97
  %105 = load i64, ptr %11, align 8, !tbaa !22
  %106 = call noalias ptr @CRYPTO_zalloc(i64 noundef %105, ptr noundef @.str.29, i32 noundef 146)
  store ptr %106, ptr %10, align 8, !tbaa !4
  %107 = call i32 @test_ptr(ptr noundef @.str.29, i32 noundef 146, ptr noundef @.str.59, ptr noundef %106)
  %108 = icmp ne i32 %107, 0
  br i1 %108, label %109, label %140

109:                                              ; preds = %104
  %110 = load ptr, ptr %5, align 8, !tbaa !29
  %111 = load ptr, ptr %10, align 8, !tbaa !4
  %112 = load ptr, ptr %4, align 8, !tbaa !27
  %113 = getelementptr inbounds nuw %struct.ml_dsa_sig_gen_test_data_st, ptr %112, i32 0, i32 3
  %114 = load ptr, ptr %113, align 8, !tbaa !45
  %115 = load ptr, ptr %4, align 8, !tbaa !27
  %116 = getelementptr inbounds nuw %struct.ml_dsa_sig_gen_test_data_st, ptr %115, i32 0, i32 4
  %117 = load i64, ptr %116, align 8, !tbaa !46
  %118 = call i32 @EVP_PKEY_sign(ptr noundef %110, ptr noundef %111, ptr noundef %11, ptr noundef %114, i64 noundef %117)
  %119 = call i32 @test_int_eq(ptr noundef @.str.29, i32 noundef 148, ptr noundef @.str.60, ptr noundef @.str.44, i32 noundef %118, i32 noundef 1)
  %120 = icmp ne i32 %119, 0
  br i1 %120, label %121, label %140

121:                                              ; preds = %109
  %122 = load ptr, ptr @lib_ctx, align 8, !tbaa !43
  %123 = load ptr, ptr %10, align 8, !tbaa !4
  %124 = load i64, ptr %11, align 8, !tbaa !22
  %125 = getelementptr inbounds [32 x i8], ptr %13, i64 0, i64 0
  %126 = call i32 @EVP_Q_digest(ptr noundef %122, ptr noundef @.str.62, ptr noundef null, ptr noundef %123, i64 noundef %124, ptr noundef %125, ptr noundef %14)
  %127 = call i32 @test_int_eq(ptr noundef @.str.29, i32 noundef 150, ptr noundef @.str.61, ptr noundef @.str.44, i32 noundef %126, i32 noundef 1)
  %128 = icmp ne i32 %127, 0
  br i1 %128, label %129, label %140

129:                                              ; preds = %121
  %130 = getelementptr inbounds [32 x i8], ptr %13, i64 0, i64 0
  %131 = load i64, ptr %14, align 8, !tbaa !22
  %132 = load ptr, ptr %4, align 8, !tbaa !27
  %133 = getelementptr inbounds nuw %struct.ml_dsa_sig_gen_test_data_st, ptr %132, i32 0, i32 5
  %134 = load ptr, ptr %133, align 8, !tbaa !47
  %135 = load ptr, ptr %4, align 8, !tbaa !27
  %136 = getelementptr inbounds nuw %struct.ml_dsa_sig_gen_test_data_st, ptr %135, i32 0, i32 6
  %137 = load i64, ptr %136, align 8, !tbaa !48
  %138 = call i32 @test_mem_eq(ptr noundef @.str.29, i32 noundef 151, ptr noundef @.str.63, ptr noundef @.str.64, ptr noundef %130, i64 noundef %131, ptr noundef %134, i64 noundef %137)
  %139 = icmp ne i32 %138, 0
  br i1 %139, label %141, label %140

140:                                              ; preds = %129, %121, %109, %104, %97, %90, %79, %72, %64, %58, %42
  br label %142

141:                                              ; preds = %129
  store i32 1, ptr %3, align 4, !tbaa !9
  br label %142

142:                                              ; preds = %141, %140
  %143 = load ptr, ptr %7, align 8, !tbaa !31
  call void @EVP_SIGNATURE_free(ptr noundef %143)
  %144 = load ptr, ptr %6, align 8, !tbaa !15
  call void @EVP_PKEY_free(ptr noundef %144)
  %145 = load ptr, ptr %5, align 8, !tbaa !29
  call void @EVP_PKEY_CTX_free(ptr noundef %145)
  %146 = load ptr, ptr %10, align 8, !tbaa !4
  call void @CRYPTO_free(ptr noundef %146, ptr noundef @.str.29, i32 noundef 158)
  %147 = load i32, ptr %3, align 4, !tbaa !9
  call void @llvm.lifetime.end.p0(i64 4, ptr %16) #4
  call void @llvm.lifetime.end.p0(i64 4, ptr %15) #4
  call void @llvm.lifetime.end.p0(i64 8, ptr %14) #4
  call void @llvm.lifetime.end.p0(i64 32, ptr %13) #4
  call void @llvm.lifetime.end.p0(i64 8, ptr %12) #4
  call void @llvm.lifetime.end.p0(i64 8, ptr %11) #4
  call void @llvm.lifetime.end.p0(i64 8, ptr %10) #4
  call void @llvm.lifetime.end.p0(i64 8, ptr %9) #4
  call void @llvm.lifetime.end.p0(i64 160, ptr %8) #4
  call void @llvm.lifetime.end.p0(i64 8, ptr %7) #4
  call void @llvm.lifetime.end.p0(i64 8, ptr %6) #4
  call void @llvm.lifetime.end.p0(i64 8, ptr %5) #4
  call void @llvm.lifetime.end.p0(i64 8, ptr %4) #4
  call void @llvm.lifetime.end.p0(i64 4, ptr %3) #4
  ret i32 %147
}