; Function Attrs: nounwind uwtable
define internal range(i32 0, 2) i32 @ml_dsa_siggen_test(i32 noundef %0) #1 {
  %2 = alloca ptr, align 8
  %3 = alloca [4 x %struct.ossl_param_st], align 16
  %4 = alloca i64, align 8
  %5 = alloca i64, align 8
  %6 = alloca [32 x i8], align 16
  %7 = alloca i64, align 8
  %8 = alloca i32, align 4
  %9 = alloca i32, align 4
  %10 = alloca %struct.ossl_param_st, align 8
  %11 = alloca %struct.ossl_param_st, align 8
  %12 = alloca %struct.ossl_param_st, align 8
  %13 = sext i32 %0 to i64
  %14 = getelementptr inbounds [2 x %struct.ml_dsa_sig_gen_test_data_st], ptr @ml_dsa_siggen_testdata, i64 0, i64 %13
  call void @llvm.lifetime.start.p0(i64 8, ptr nonnull %2) #5
  store ptr null, ptr %2, align 8, !tbaa !16
  call void @llvm.lifetime.start.p0(i64 160, ptr nonnull %3) #5
  call void @llvm.lifetime.start.p0(i64 8, ptr nonnull %4) #5
  store i64 0, ptr %4, align 8, !tbaa !13
  call void @llvm.lifetime.start.p0(i64 8, ptr nonnull %5) #5
  store i64 0, ptr %5, align 8, !tbaa !13
  call void @llvm.lifetime.start.p0(i64 32, ptr nonnull %6) #5
  call void @llvm.lifetime.start.p0(i64 8, ptr nonnull %7) #5
  store i64 32, ptr %7, align 8, !tbaa !13
  call void @llvm.lifetime.start.p0(i64 4, ptr nonnull %8) #5
  store i32 0, ptr %8, align 4, !tbaa !18
  call void @llvm.lifetime.start.p0(i64 4, ptr nonnull %9) #5
  store i32 1, ptr %9, align 4, !tbaa !18
  %15 = getelementptr inbounds nuw i8, ptr %3, i64 40
  call void @OSSL_PARAM_construct_int(ptr dead_on_unwind nonnull writable sret(%struct.ossl_param_st) align 8 %3, ptr noundef nonnull @.str.47, ptr noundef nonnull %9) #5
  %16 = getelementptr inbounds nuw i8, ptr %3, i64 80
  call void @llvm.lifetime.start.p0(i64 40, ptr nonnull %10) #5
  call void @OSSL_PARAM_construct_int(ptr dead_on_unwind nonnull writable sret(%struct.ossl_param_st) align 8 %10, ptr noundef nonnull @.str.48, ptr noundef nonnull %8) #5
  call void @llvm.memcpy.p0.p0.i64(ptr noundef nonnull align 8 dereferenceable(40) %15, ptr noundef nonnull align 8 dereferenceable(40) %10, i64 40, i1 false), !tbaa.struct !20
  call void @llvm.lifetime.end.p0(i64 40, ptr nonnull %10) #5
  %17 = getelementptr inbounds nuw i8, ptr %14, i64 56
  %18 = load ptr, ptr %17, align 8, !tbaa !23
  %.not = icmp eq ptr %18, null
  br i1 %.not, label %23, label %19

19:                                               ; preds = %1
  %20 = getelementptr inbounds nuw i8, ptr %3, i64 120
  call void @llvm.lifetime.start.p0(i64 40, ptr nonnull %11) #5
  %21 = getelementptr inbounds nuw i8, ptr %14, i64 64
  %22 = load i64, ptr %21, align 8, !tbaa !25
  call void @OSSL_PARAM_construct_octet_string(ptr dead_on_unwind nonnull writable sret(%struct.ossl_param_st) align 8 %11, ptr noundef nonnull @.str.49, ptr noundef nonnull %18, i64 noundef %22) #5
  call void @llvm.memcpy.p0.p0.i64(ptr noundef nonnull align 16 dereferenceable(40) %16, ptr noundef nonnull align 8 dereferenceable(40) %11, i64 40, i1 false), !tbaa.struct !20
  call void @llvm.lifetime.end.p0(i64 40, ptr nonnull %11) #5
  br label %23

23:                                               ; preds = %19, %1
  %.027 = phi ptr [ %20, %19 ], [ %16, %1 ]
  call void @llvm.lifetime.start.p0(i64 40, ptr nonnull %12) #5
  call void @OSSL_PARAM_construct_end(ptr dead_on_unwind nonnull writable sret(%struct.ossl_param_st) align 8 %12) #5
  call void @llvm.memcpy.p0.p0.i64(ptr noundef nonnull align 8 dereferenceable(40) %.027, ptr noundef nonnull align 8 dereferenceable(40) %12, i64 40, i1 false), !tbaa.struct !20
  call void @llvm.lifetime.end.p0(i64 40, ptr nonnull %12) #5
  %24 = getelementptr inbounds nuw i8, ptr %14, i64 8
  %25 = load ptr, ptr %24, align 8, !tbaa !26
  %26 = call fastcc i32 @ml_dsa_create_keypair(ptr noundef %2, ptr noundef nonnull @.str.39, ptr noundef %25, i64 noundef 4032, ptr noundef null, i64 noundef 0, i32 noundef 1)
  %27 = call i32 @test_true(ptr noundef nonnull @.str.29, i32 noundef 137, ptr noundef nonnull @.str.50, i32 noundef %26) #5
  %.not31 = icmp eq i32 %27, 0
  br i1 %.not31, label %76, label %28

28:                                               ; preds = %23
  %29 = load ptr, ptr @lib_ctx, align 8, !tbaa !27
  %30 = load ptr, ptr %2, align 8, !tbaa !16
  %31 = call ptr @EVP_PKEY_CTX_new_from_pkey(ptr noundef %29, ptr noundef %30, ptr noundef null) #5
  %32 = call i32 @test_ptr(ptr noundef nonnull @.str.29, i32 noundef 138, ptr noundef nonnull @.str.51, ptr noundef %31) #5
  %.not32 = icmp eq i32 %32, 0
  br i1 %.not32, label %76, label %33

33:                                               ; preds = %28
  %34 = load ptr, ptr @lib_ctx, align 8, !tbaa !27
  %35 = call ptr @EVP_SIGNATURE_fetch(ptr noundef %34, ptr noundef nonnull @.str.39, ptr noundef null) #5
  %36 = call i32 @test_ptr(ptr noundef nonnull @.str.29, i32 noundef 139, ptr noundef nonnull @.str.52, ptr noundef %35) #5
  %.not33 = icmp eq i32 %36, 0
  br i1 %.not33, label %76, label %37

37:                                               ; preds = %33
  %38 = call i32 @EVP_PKEY_sign_message_init(ptr noundef %31, ptr noundef %35, ptr noundef nonnull %3) #5
  %39 = call i32 @test_int_eq(ptr noundef nonnull @.str.29, i32 noundef 140, ptr noundef nonnull @.str.53, ptr noundef nonnull @.str.44, i32 noundef %38, i32 noundef 1) #5
  %.not34 = icmp eq i32 %39, 0
  br i1 %.not34, label %76, label %40

40:                                               ; preds = %37
  %41 = getelementptr inbounds nuw i8, ptr %14, i64 24
  %42 = load ptr, ptr %41, align 8, !tbaa !29
  %43 = getelementptr inbounds nuw i8, ptr %14, i64 32
  %44 = load i64, ptr %43, align 8, !tbaa !30
  %45 = call i32 @EVP_PKEY_sign(ptr noundef %31, ptr noundef null, ptr noundef nonnull %4, ptr noundef %42, i64 noundef %44) #5
  %46 = call i32 @test_int_eq(ptr noundef nonnull @.str.29, i32 noundef 142, ptr noundef nonnull @.str.54, ptr noundef nonnull @.str.44, i32 noundef %45, i32 noundef 1) #5
  %.not35 = icmp eq i32 %46, 0
  br i1 %.not35, label %76, label %47

47:                                               ; preds = %40
  %48 = load ptr, ptr %2, align 8, !tbaa !16
  %49 = call i32 @EVP_PKEY_get_size_t_param(ptr noundef %48, ptr noundef nonnull @.str.56, ptr noundef nonnull %5) #5
  %50 = icmp ne i32 %49, 0
  %51 = zext i1 %50 to i32
  %52 = call i32 @test_true(ptr noundef nonnull @.str.29, i32 noundef 144, ptr noundef nonnull @.str.55, i32 noundef %51) #5
  %.not36 = icmp eq i32 %52, 0
  br i1 %.not36, label %76, label %53

53:                                               ; preds = %47
  %54 = load i64, ptr %5, align 8, !tbaa !13
  %55 = trunc i64 %54 to i32
  %56 = load i64, ptr %4, align 8, !tbaa !13
  %57 = trunc i64 %56 to i32
  %58 = call i32 @test_int_eq(ptr noundef nonnull @.str.29, i32 noundef 145, ptr noundef nonnull @.str.57, ptr noundef nonnull @.str.58, i32 noundef %55, i32 noundef %57) #5
  %.not37 = icmp eq i32 %58, 0
  br i1 %.not37, label %76, label %59

59:                                               ; preds = %53
  %60 = load i64, ptr %4, align 8, !tbaa !13
  %61 = call noalias ptr @CRYPTO_zalloc(i64 noundef %60, ptr noundef nonnull @.str.29, i32 noundef 146) #5
  %62 = call i32 @test_ptr(ptr noundef nonnull @.str.29, i32 noundef 146, ptr noundef nonnull @.str.59, ptr noundef %61) #5
  %.not38 = icmp eq i32 %62, 0
  br i1 %.not38, label %76, label %63

63:                                               ; preds = %59
  %64 = call i32 @EVP_PKEY_sign(ptr noundef %31, ptr noundef %61, ptr noundef nonnull %4, ptr noundef %42, i64 noundef %44) #5
  %65 = call i32 @test_int_eq(ptr noundef nonnull @.str.29, i32 noundef 148, ptr noundef nonnull @.str.60, ptr noundef nonnull @.str.44, i32 noundef %64, i32 noundef 1) #5
  %.not39 = icmp eq i32 %65, 0
  br i1 %.not39, label %76, label %66

66:                                               ; preds = %63
  %67 = load ptr, ptr @lib_ctx, align 8, !tbaa !27
  %68 = load i64, ptr %4, align 8, !tbaa !13
  %69 = call i32 @EVP_Q_digest(ptr noundef %67, ptr noundef nonnull @.str.62, ptr noundef null, ptr noundef %61, i64 noundef %68, ptr noundef nonnull %6, ptr noundef nonnull %7) #5
  %70 = call i32 @test_int_eq(ptr noundef nonnull @.str.29, i32 noundef 150, ptr noundef nonnull @.str.61, ptr noundef nonnull @.str.44, i32 noundef %69, i32 noundef 1) #5
  %.not40 = icmp eq i32 %70, 0
  br i1 %.not40, label %76, label %71

71:                                               ; preds = %66
  %72 = load i64, ptr %7, align 8, !tbaa !13
  %73 = getelementptr inbounds nuw i8, ptr %14, i64 40
  %74 = load ptr, ptr %73, align 8, !tbaa !31
  %75 = call i32 @test_mem_eq(ptr noundef nonnull @.str.29, i32 noundef 151, ptr noundef nonnull @.str.63, ptr noundef nonnull @.str.64, ptr noundef nonnull %6, i64 noundef %72, ptr noundef %74, i64 noundef 32) #5
  %.not41 = icmp ne i32 %75, 0
  %spec.select = zext i1 %.not41 to i32
  br label %76

76:                                               ; preds = %71, %23, %28, %33, %37, %40, %47, %53, %59, %63, %66
  %.030 = phi i32 [ 0, %66 ], [ 0, %63 ], [ 0, %59 ], [ 0, %53 ], [ 0, %47 ], [ 0, %40 ], [ 0, %37 ], [ 0, %33 ], [ 0, %28 ], [ 0, %23 ], [ %spec.select, %71 ]
  %.029 = phi ptr [ %31, %66 ], [ %31, %63 ], [ %31, %59 ], [ %31, %53 ], [ %31, %47 ], [ %31, %40 ], [ %31, %37 ], [ %31, %33 ], [ %31, %28 ], [ null, %23 ], [ %31, %71 ]
  %.028 = phi ptr [ %35, %66 ], [ %35, %63 ], [ %35, %59 ], [ %35, %53 ], [ %35, %47 ], [ %35, %40 ], [ %35, %37 ], [ %35, %33 ], [ null, %28 ], [ null, %23 ], [ %35, %71 ]
  %.0 = phi ptr [ %61, %66 ], [ %61, %63 ], [ %61, %59 ], [ null, %53 ], [ null, %47 ], [ null, %40 ], [ null, %37 ], [ null, %33 ], [ null, %28 ], [ null, %23 ], [ %61, %71 ]
  call void @EVP_SIGNATURE_free(ptr noundef %.028) #5
  %77 = load ptr, ptr %2, align 8, !tbaa !16
  call void @EVP_PKEY_free(ptr noundef %77) #5
  call void @EVP_PKEY_CTX_free(ptr noundef %.029) #5
  call void @CRYPTO_free(ptr noundef %.0, ptr noundef nonnull @.str.29, i32 noundef 158) #5
  call void @llvm.lifetime.end.p0(i64 4, ptr nonnull %9) #5
  call void @llvm.lifetime.end.p0(i64 4, ptr nonnull %8) #5
  call void @llvm.lifetime.end.p0(i64 8, ptr nonnull %7) #5
  call void @llvm.lifetime.end.p0(i64 32, ptr nonnull %6) #5
  call void @llvm.lifetime.end.p0(i64 8, ptr nonnull %5) #5
  call void @llvm.lifetime.end.p0(i64 8, ptr nonnull %4) #5
  call void @llvm.lifetime.end.p0(i64 160, ptr nonnull %3) #5
  call void @llvm.lifetime.end.p0(i64 8, ptr nonnull %2) #5
  ret i32 %.030
}